target datalayout = "e-m:e-p270:32:32-p271:32:32-p272:64:64-i64:64-i128:128-f80:128-n8:16:32:64-S128"
target triple = "x86_64-unknown-linux-gnu"

%"class.std::__cxx11::basic_string" = type { %"struct.std::__cxx11::basic_string<char>::_Alloc_hider", i64, %union.anon }
%"struct.std::__cxx11::basic_string<char>::_Alloc_hider" = type { ptr }
%union.anon = type { i64, [8 x i8] }
%"class.__gnu_cxx::__normal_iterator.0" = type { ptr }
%"class.__gnu_cxx::__normal_iterator" = type { ptr }

; Function Attrs: mustprogress nounwind uwtable
define linkonce_odr noundef nonnull align 8 dereferenceable(8) ptr @_ZNK9__gnu_cxx17__normal_iteratorIPcNSt7__cxx1112basic_stringIcSt11char_traitsIcESaIcEEEE4baseEv(ptr noundef nonnull align 8 dereferenceable(8) %this) #1 comdat align 2 {
entry:
  %this.addr = alloca ptr, align 8
  store ptr %this, ptr %this.addr, align 8
  %this1 = load ptr, ptr %this.addr, align 8
  %_M_current = getelementptr inbounds %"class.__gnu_cxx::__normal_iterator", ptr %this1, i32 0, i32 0
  ret ptr %_M_current
}

; Function Attrs: mustprogress nounwind uwtable
define linkonce_odr void @_ZN9__gnu_cxx17__normal_iteratorIPcNSt7__cxx1112basic_stringIcSt11char_traitsIcESaIcEEEEC2ERKS1_(ptr noundef nonnull align 8 dereferenceable(8) %this, ptr noundef nonnull align 8 dereferenceable(8) %__i) unnamed_addr #1 comdat align 2 {
entry:
  %this.addr = alloca ptr, align 8
  %__i.addr = alloca ptr, align 8
  store ptr %this, ptr %this.addr, align 8
  store ptr %__i, ptr %__i.addr, align 8
  %this1 = load ptr, ptr %this.addr, align 8
  %_M_current = getelementptr inbounds %"class.__gnu_cxx::__normal_iterator", ptr %this1, i32 0, i32 0
  %0 = load ptr, ptr %__i.addr, align 8
  %1 = load ptr, ptr %0, align 8
  store ptr %1, ptr %_M_current, align 8
  ret void
}

; Function Attrs: mustprogress nounwind uwtable
define linkonce_odr void @_ZN9__gnu_cxx17__normal_iteratorIPKcNSt7__cxx1112basic_stringIcSt11char_traitsIcESaIcEEEEC2IPcvEERKNS0_IT_S8_EE(ptr noundef nonnull align 8 dereferenceable(8) %this, ptr noundef nonnull align 8 dereferenceable(8) %__i) unnamed_addr #1 comdat align 2 {
entry:
  %this.addr = alloca ptr, align 8
  %__i.addr = alloca ptr, align 8
  store ptr %this, ptr %this.addr, align 8
  store ptr %__i, ptr %__i.addr, align 8
  %this1 = load ptr, ptr %this.addr, align 8
  %_M_current = getelementptr inbounds %"class.__gnu_cxx::__normal_iterator.0", ptr %this1, i32 0, i32 0
  %0 = load ptr, ptr %__i.addr, align 8
  %call = call noundef nonnull align 8 dereferenceable(8) ptr @_ZNK9__gnu_cxx17__normal_iteratorIPcNSt7__cxx1112basic_stringIcSt11char_traitsIcESaIcEEEE4baseEv(ptr noundef nonnull align 8 dereferenceable(8) %0) #2
  %1 = load ptr, ptr %call, align 8
  store ptr %1, ptr %_M_current, align 8
  ret void
}

; Function Attrs: mustprogress nounwind uwtable
define linkonce_odr ptr @_ZNK9__gnu_cxx17__normal_iteratorIPcNSt7__cxx1112basic_stringIcSt11char_traitsIcESaIcEEEEplEl(ptr noundef nonnull align 8 dereferenceable(8) %this, i64 noundef %__n) #1 comdat align 2 {
entry:
  %retval = alloca %"class.__gnu_cxx::__normal_iterator", align 8
  %this.addr = alloca ptr, align 8
  %__n.addr = alloca i64, align 8
  %ref.tmp = alloca ptr, align 8
  store ptr %this, ptr %this.addr, align 8
  store i64 %__n, ptr %__n.addr, align 8
  %this1 = load ptr, ptr %this.addr, align 8
  %_M_current = getelementptr inbounds %"class.__gnu_cxx::__normal_iterator", ptr %this1, i32 0, i32 0
  %0 = load ptr, ptr %_M_current, align 8
  %1 = load i64, ptr %__n.addr, align 8
  %add.ptr = getelementptr inbounds i8, ptr %0, i64 %1
  store ptr %add.ptr, ptr %ref.tmp, align 8
  call void @_ZN9__gnu_cxx17__normal_iteratorIPcNSt7__cxx1112basic_stringIcSt11char_traitsIcESaIcEEEEC2ERKS1_(ptr noundef nonnull align 8 dereferenceable(8) %retval, ptr noundef nonnull align 8 dereferenceable(8) %ref.tmp) #2
  %coerce.dive = getelementptr inbounds %"class.__gnu_cxx::__normal_iterator", ptr %retval, i32 0, i32 0
  %2 = load ptr, ptr %coerce.dive, align 8
  ret ptr %2
}

; Function Attrs: mustprogress nounwind uwtable
define hidden void @_ZN4llvh3DOT12EscapeStringERKNSt7__cxx1112basic_stringIcSt11char_traitsIcESaIcEEE(ptr noalias sret(%"class.std::__cxx11::basic_string") align 8 %agg.result, ptr noundef nonnull align 8 dereferenceable(32) %Label) #1 {
entry:
  %result.ptr = alloca ptr, align 8
  %Label.addr = alloca ptr, align 8
  %nrvo = alloca i1, align 1
  %i = alloca i32, align 4
  %agg.tmp = alloca %"class.__gnu_cxx::__normal_iterator.0", align 8
  %ref.tmp = alloca %"class.__gnu_cxx::__normal_iterator", align 8
  %ref.tmp4 = alloca %"class.__gnu_cxx::__normal_iterator", align 8
  %coerce = alloca %"class.__gnu_cxx::__normal_iterator", align 8
  %agg.tmp15 = alloca %"class.__gnu_cxx::__normal_iterator.0", align 8
  %ref.tmp16 = alloca %"class.__gnu_cxx::__normal_iterator", align 8
  %ref.tmp17 = alloca %"class.__gnu_cxx::__normal_iterator", align 8
  %coerce25 = alloca %"class.__gnu_cxx::__normal_iterator", align 8
  %agg.tmp40 = alloca %"class.__gnu_cxx::__normal_iterator.0", align 8
  %ref.tmp41 = alloca %"class.__gnu_cxx::__normal_iterator", align 8
  %ref.tmp42 = alloca %"class.__gnu_cxx::__normal_iterator", align 8
  %coerce50 = alloca %"class.__gnu_cxx::__normal_iterator", align 8
  %agg.tmp53 = alloca %"class.__gnu_cxx::__normal_iterator.0", align 8
  %ref.tmp54 = alloca %"class.__gnu_cxx::__normal_iterator", align 8
  %ref.tmp55 = alloca %"class.__gnu_cxx::__normal_iterator", align 8
  %coerce63 = alloca %"class.__gnu_cxx::__normal_iterator", align 8
  store ptr %agg.result, ptr %result.ptr, align 8
  store ptr %Label, ptr %Label.addr, align 8
  store i1 false, ptr %nrvo, align 1
  %0 = load ptr, ptr %Label.addr, align 8
  call void @_ZNSt7__cxx1112basic_stringIcSt11char_traitsIcESaIcEEC1ERKS4_(ptr noundef nonnull align 8 dereferenceable(32) %agg.result, ptr noundef nonnull align 8 dereferenceable(32) %0)
  store i32 0, ptr %i, align 4
  br label %for.cond

for.cond:                                         ; preds = %for.inc, %entry
  %1 = load i32, ptr %i, align 4
  %conv = zext i32 %1 to i64
  %call = call noundef i64 @_ZNKSt7__cxx1112basic_stringIcSt11char_traitsIcESaIcEE6lengthEv(ptr noundef nonnull align 8 dereferenceable(32) %agg.result) #2
  %cmp = icmp ne i64 %conv, %call
  br i1 %cmp, label %for.body, label %for.end

for.body:                                         ; preds = %for.cond
  %2 = load i32, ptr %i, align 4
  %conv1 = zext i32 %2 to i64
  %call2 = call noundef nonnull align 1 dereferenceable(1) ptr @_ZNSt7__cxx1112basic_stringIcSt11char_traitsIcESaIcEEixEm(ptr noundef nonnull align 8 dereferenceable(32) %agg.result, i64 noundef %conv1)
  %3 = load i8, ptr %call2, align 1
  %conv3 = sext i8 %3 to i32
  switch i32 %conv3, label %sw.epilog66 [
    i32 10, label %sw.bb
    i32 9, label %sw.bb14
    i32 92, label %sw.bb30
    i32 123, label %sw.bb52
    i32 125, label %sw.bb52
    i32 60, label %sw.bb52
    i32 62, label %sw.bb52
    i32 124, label %sw.bb52
    i32 34, label %sw.bb52
  ]

sw.bb:                                            ; preds = %for.body
  %call5 = call ptr @_ZNSt7__cxx1112basic_stringIcSt11char_traitsIcESaIcEE5beginEv(ptr noundef nonnull align 8 dereferenceable(32) %agg.result) #2
  %coerce.dive = getelementptr inbounds %"class.__gnu_cxx::__normal_iterator", ptr %ref.tmp4, i32 0, i32 0
  store ptr %call5, ptr %coerce.dive, align 8
  %4 = load i32, ptr %i, align 4
  %conv6 = zext i32 %4 to i64
  %call7 = call ptr @_ZNK9__gnu_cxx17__normal_iteratorIPcNSt7__cxx1112basic_stringIcSt11char_traitsIcESaIcEEEEplEl(ptr noundef nonnull align 8 dereferenceable(8) %ref.tmp4, i64 noundef %conv6) #2
  %coerce.dive8 = getelementptr inbounds %"class.__gnu_cxx::__normal_iterator", ptr %ref.tmp, i32 0, i32 0
  store ptr %call7, ptr %coerce.dive8, align 8
  call void @_ZN9__gnu_cxx17__normal_iteratorIPKcNSt7__cxx1112basic_stringIcSt11char_traitsIcESaIcEEEEC2IPcvEERKNS0_IT_S8_EE(ptr noundef nonnull align 8 dereferenceable(8) %agg.tmp, ptr noundef nonnull align 8 dereferenceable(8) %ref.tmp) #2
  %coerce.dive9 = getelementptr inbounds %"class.__gnu_cxx::__normal_iterator.0", ptr %agg.tmp, i32 0, i32 0
  %5 = load ptr, ptr %coerce.dive9, align 8
  %call10 = call ptr @_ZNSt7__cxx1112basic_stringIcSt11char_traitsIcESaIcEE6insertEN9__gnu_cxx17__normal_iteratorIPKcS4_EEc(ptr noundef nonnull align 8 dereferenceable(32) %agg.result, ptr %5, i8 noundef signext 92)
  %coerce.dive11 = getelementptr inbounds %"class.__gnu_cxx::__normal_iterator", ptr %coerce, i32 0, i32 0
  store ptr %call10, ptr %coerce.dive11, align 8
  %6 = load i32, ptr %i, align 4
  %inc = add i32 %6, 1
  store i32 %inc, ptr %i, align 4
  %7 = load i32, ptr %i, align 4
  %conv12 = zext i32 %7 to i64
  %call13 = call noundef nonnull align 1 dereferenceable(1) ptr @_ZNSt7__cxx1112basic_stringIcSt11char_traitsIcESaIcEEixEm(ptr noundef nonnull align 8 dereferenceable(32) %agg.result, i64 noundef %conv12)
  store i8 110, ptr %call13, align 1
  br label %sw.epilog66

sw.bb14:                                          ; preds = %for.body
  %call18 = call ptr @_ZNSt7__cxx1112basic_stringIcSt11char_traitsIcESaIcEE5beginEv(ptr noundef nonnull align 8 dereferenceable(32) %agg.result) #2
  %coerce.dive19 = getelementptr inbounds %"class.__gnu_cxx::__normal_iterator", ptr %ref.tmp17, i32 0, i32 0
  store ptr %call18, ptr %coerce.dive19, align 8
  %8 = load i32, ptr %i, align 4
  %conv20 = zext i32 %8 to i64
  %call21 = call ptr @_ZNK9__gnu_cxx17__normal_iteratorIPcNSt7__cxx1112basic_stringIcSt11char_traitsIcESaIcEEEEplEl(ptr noundef nonnull align 8 dereferenceable(8) %ref.tmp17, i64 noundef %conv20) #2
  %coerce.dive22 = getelementptr inbounds %"class.__gnu_cxx::__normal_iterator", ptr %ref.tmp16, i32 0, i32 0
  store ptr %call21, ptr %coerce.dive22, align 8
  call void @_ZN9__gnu_cxx17__normal_iteratorIPKcNSt7__cxx1112basic_stringIcSt11char_traitsIcESaIcEEEEC2IPcvEERKNS0_IT_S8_EE(ptr noundef nonnull align 8 dereferenceable(8) %agg.tmp15, ptr noundef nonnull align 8 dereferenceable(8) %ref.tmp16) #2
  %coerce.dive23 = getelementptr inbounds %"class.__gnu_cxx::__normal_iterator.0", ptr %agg.tmp15, i32 0, i32 0
  %9 = load ptr, ptr %coerce.dive23, align 8
  %call24 = call ptr @_ZNSt7__cxx1112basic_stringIcSt11char_traitsIcESaIcEE6insertEN9__gnu_cxx17__normal_iteratorIPKcS4_EEc(ptr noundef nonnull align 8 dereferenceable(32) %agg.result, ptr %9, i8 noundef signext 32)
  %coerce.dive26 = getelementptr inbounds %"class.__gnu_cxx::__normal_iterator", ptr %coerce25, i32 0, i32 0
  store ptr %call24, ptr %coerce.dive26, align 8
  %10 = load i32, ptr %i, align 4
  %inc27 = add i32 %10, 1
  store i32 %inc27, ptr %i, align 4
  %11 = load i32, ptr %i, align 4
  %conv28 = zext i32 %11 to i64
  %call29 = call noundef nonnull align 1 dereferenceable(1) ptr @_ZNSt7__cxx1112basic_stringIcSt11char_traitsIcESaIcEEixEm(ptr noundef nonnull align 8 dereferenceable(32) %agg.result, i64 noundef %conv28)
  store i8 32, ptr %call29, align 1
  br label %sw.epilog66

sw.bb30:                                          ; preds = %for.body
  %12 = load i32, ptr %i, align 4
  %add = add i32 %12, 1
  %conv31 = zext i32 %add to i64
  %call32 = call noundef i64 @_ZNKSt7__cxx1112basic_stringIcSt11char_traitsIcESaIcEE6lengthEv(ptr noundef nonnull align 8 dereferenceable(32) %agg.result) #2
  %cmp33 = icmp ne i64 %conv31, %call32
  br i1 %cmp33, label %if.then, label %if.end

if.then:                                          ; preds = %sw.bb30
  %13 = load i32, ptr %i, align 4
  %add34 = add i32 %13, 1
  %conv35 = zext i32 %add34 to i64
  %call36 = call noundef nonnull align 1 dereferenceable(1) ptr @_ZNSt7__cxx1112basic_stringIcSt11char_traitsIcESaIcEEixEm(ptr noundef nonnull align 8 dereferenceable(32) %agg.result, i64 noundef %conv35)
  %14 = load i8, ptr %call36, align 1
  %conv37 = sext i8 %14 to i32
  switch i32 %conv37, label %sw.default [
    i32 108, label %sw.bb38
    i32 124, label %sw.bb39
    i32 123, label %sw.bb39
    i32 125, label %sw.bb39
  ]

sw.bb38:                                          ; preds = %if.then
  br label %for.inc

sw.bb39:                                          ; preds = %if.then, %if.then, %if.then
  %call43 = call ptr @_ZNSt7__cxx1112basic_stringIcSt11char_traitsIcESaIcEE5beginEv(ptr noundef nonnull align 8 dereferenceable(32) %agg.result) #2
  %coerce.dive44 = getelementptr inbounds %"class.__gnu_cxx::__normal_iterator", ptr %ref.tmp42, i32 0, i32 0
  store ptr %call43, ptr %coerce.dive44, align 8
  %15 = load i32, ptr %i, align 4
  %conv45 = zext i32 %15 to i64
  %call46 = call ptr @_ZNK9__gnu_cxx17__normal_iteratorIPcNSt7__cxx1112basic_stringIcSt11char_traitsIcESaIcEEEEplEl(ptr noundef nonnull align 8 dereferenceable(8) %ref.tmp42, i64 noundef %conv45) #2
  %coerce.dive47 = getelementptr inbounds %"class.__gnu_cxx::__normal_iterator", ptr %ref.tmp41, i32 0, i32 0
  store ptr %call46, ptr %coerce.dive47, align 8
  call void @_ZN9__gnu_cxx17__normal_iteratorIPKcNSt7__cxx1112basic_stringIcSt11char_traitsIcESaIcEEEEC2IPcvEERKNS0_IT_S8_EE(ptr noundef nonnull align 8 dereferenceable(8) %agg.tmp40, ptr noundef nonnull align 8 dereferenceable(8) %ref.tmp41) #2
  %coerce.dive48 = getelementptr inbounds %"class.__gnu_cxx::__normal_iterator.0", ptr %agg.tmp40, i32 0, i32 0
  %16 = load ptr, ptr %coerce.dive48, align 8
  %call49 = call ptr @_ZNSt7__cxx1112basic_stringIcSt11char_traitsIcESaIcEE5eraseEN9__gnu_cxx17__normal_iteratorIPKcS4_EE(ptr noundef nonnull align 8 dereferenceable(32) %agg.result, ptr %16)
  %coerce.dive51 = getelementptr inbounds %"class.__gnu_cxx::__normal_iterator", ptr %coerce50, i32 0, i32 0
  store ptr %call49, ptr %coerce.dive51, align 8
  br label %for.inc

sw.default:                                       ; preds = %if.then
  br label %sw.epilog

sw.epilog:                                        ; preds = %sw.default
  br label %if.end

if.end:                                           ; preds = %sw.epilog, %sw.bb30
  br label %sw.bb52

sw.bb52:                                          ; preds = %if.end, %for.body, %for.body, %for.body, %for.body, %for.body, %for.body
  %call56 = call ptr @_ZNSt7__cxx1112basic_stringIcSt11char_traitsIcESaIcEE5beginEv(ptr noundef nonnull align 8 dereferenceable(32) %agg.result) #2
  %coerce.dive57 = getelementptr inbounds %"class.__gnu_cxx::__normal_iterator", ptr %ref.tmp55, i32 0, i32 0
  store ptr %call56, ptr %coerce.dive57, align 8
  %17 = load i32, ptr %i, align 4
  %conv58 = zext i32 %17 to i64
  %call59 = call ptr @_ZNK9__gnu_cxx17__normal_iteratorIPcNSt7__cxx1112basic_stringIcSt11char_traitsIcESaIcEEEEplEl(ptr noundef nonnull align 8 dereferenceable(8) %ref.tmp55, i64 noundef %conv58) #2
  %coerce.dive60 = getelementptr inbounds %"class.__gnu_cxx::__normal_iterator", ptr %ref.tmp54, i32 0, i32 0
  store ptr %call59, ptr %coerce.dive60, align 8
  call void @_ZN9__gnu_cxx17__normal_iteratorIPKcNSt7__cxx1112basic_stringIcSt11char_traitsIcESaIcEEEEC2IPcvEERKNS0_IT_S8_EE(ptr noundef nonnull align 8 dereferenceable(8) %agg.tmp53, ptr noundef nonnull align 8 dereferenceable(8) %ref.tmp54) #2
  %coerce.dive61 = getelementptr inbounds %"class.__gnu_cxx::__normal_iterator.0", ptr %agg.tmp53, i32 0, i32 0
  %18 = load ptr, ptr %coerce.dive61, align 8
  %call62 = call ptr @_ZNSt7__cxx1112basic_stringIcSt11char_traitsIcESaIcEE6insertEN9__gnu_cxx17__normal_iteratorIPKcS4_EEc(ptr noundef nonnull align 8 dereferenceable(32) %agg.result, ptr %18, i8 noundef signext 92)
  %coerce.dive64 = getelementptr inbounds %"class.__gnu_cxx::__normal_iterator", ptr %coerce63, i32 0, i32 0
  store ptr %call62, ptr %coerce.dive64, align 8
  %19 = load i32, ptr %i, align 4
  %inc65 = add i32 %19, 1
  store i32 %inc65, ptr %i, align 4
  br label %sw.epilog66

sw.epilog66:                                      ; preds = %sw.bb52, %sw.bb14, %sw.bb, %for.body
  br label %for.inc

for.inc:                                          ; preds = %sw.epilog66, %sw.bb39, %sw.bb38
  %20 = load i32, ptr %i, align 4
  %inc67 = add i32 %20, 1
  store i32 %inc67, ptr %i, align 4
  br label %for.cond, !llvm.loop !4

for.end:                                          ; preds = %for.cond
  store i1 true, ptr %nrvo, align 1
  %nrvo.val = load i1, ptr %nrvo, align 1
  br i1 %nrvo.val, label %nrvo.skipdtor, label %nrvo.unused

nrvo.unused:                                      ; preds = %for.end
  call void @_ZNSt7__cxx1112basic_stringIcSt11char_traitsIcESaIcEED1Ev(ptr noundef nonnull align 8 dereferenceable(32) %agg.result) #2
  br label %nrvo.skipdtor

nrvo.skipdtor:                                    ; preds = %nrvo.unused, %for.end
  ret void
}