; Function Attrs: mustprogress nounwind uwtable
define hidden void @_ZN4llvh3DOT12EscapeStringERKNSt7__cxx1112basic_stringIcSt11char_traitsIcESaIcEEE(ptr noalias nonnull sret(%"class.std::__cxx11::basic_string") align 8 %agg.result, ptr noundef nonnull align 8 dereferenceable(32) %Label) local_unnamed_addr #0 {
entry:
  tail call void @_ZNSt7__cxx1112basic_stringIcSt11char_traitsIcESaIcEEC1ERKS4_(ptr noundef nonnull align 8 dereferenceable(32) %agg.result, ptr noundef nonnull align 8 dereferenceable(32) %Label) #15
  %call17 = tail call noundef i64 @_ZNKSt7__cxx1112basic_stringIcSt11char_traitsIcESaIcEE6lengthEv(ptr noundef nonnull align 8 dereferenceable(32) %agg.result) #15
  %cmp.not18 = icmp eq i64 %call17, 0
  br i1 %cmp.not18, label %nrvo.skipdtor, label %for.body

for.body:                                         ; preds = %entry, %for.inc
  %conv20 = phi i64 [ %conv, %for.inc ], [ 0, %entry ]
  %i.019 = phi i32 [ %inc67, %for.inc ], [ 0, %entry ]
  %call2 = tail call noundef nonnull align 1 dereferenceable(1) ptr @_ZNSt7__cxx1112basic_stringIcSt11char_traitsIcESaIcEEixEm(ptr noundef nonnull align 8 dereferenceable(32) %agg.result, i64 noundef %conv20) #15
  %0 = load i8, ptr %call2, align 1
  switch i8 %0, label %for.inc [
    i8 10, label %sw.bb
    i8 9, label %sw.bb14
    i8 92, label %sw.bb30
    i8 123, label %sw.bb52
    i8 125, label %sw.bb52
    i8 60, label %sw.bb52
    i8 62, label %sw.bb52
    i8 124, label %sw.bb52
    i8 34, label %sw.bb52
  ]

sw.bb:                                            ; preds = %for.body
  %call5 = tail call ptr @_ZNSt7__cxx1112basic_stringIcSt11char_traitsIcESaIcEE5beginEv(ptr noundef nonnull align 8 dereferenceable(32) %agg.result) #15
  %add.ptr.i = getelementptr inbounds i8, ptr %call5, i64 %conv20
  %call10 = tail call ptr @_ZNSt7__cxx1112basic_stringIcSt11char_traitsIcESaIcEE6insertEN9__gnu_cxx17__normal_iteratorIPKcS4_EEc(ptr noundef nonnull align 8 dereferenceable(32) %agg.result, ptr %add.ptr.i, i8 noundef signext 92) #15
  %inc = add i32 %i.019, 1
  %conv12 = zext i32 %inc to i64
  %call13 = tail call noundef nonnull align 1 dereferenceable(1) ptr @_ZNSt7__cxx1112basic_stringIcSt11char_traitsIcESaIcEEixEm(ptr noundef nonnull align 8 dereferenceable(32) %agg.result, i64 noundef %conv12) #15
  store i8 110, ptr %call13, align 1
  br label %for.inc

sw.bb14:                                          ; preds = %for.body
  %call18 = tail call ptr @_ZNSt7__cxx1112basic_stringIcSt11char_traitsIcESaIcEE5beginEv(ptr noundef nonnull align 8 dereferenceable(32) %agg.result) #15
  %add.ptr.i14 = getelementptr inbounds i8, ptr %call18, i64 %conv20
  %call24 = tail call ptr @_ZNSt7__cxx1112basic_stringIcSt11char_traitsIcESaIcEE6insertEN9__gnu_cxx17__normal_iteratorIPKcS4_EEc(ptr noundef nonnull align 8 dereferenceable(32) %agg.result, ptr %add.ptr.i14, i8 noundef signext 32) #15
  %inc27 = add i32 %i.019, 1
  %conv28 = zext i32 %inc27 to i64
  %call29 = tail call noundef nonnull align 1 dereferenceable(1) ptr @_ZNSt7__cxx1112basic_stringIcSt11char_traitsIcESaIcEEixEm(ptr noundef nonnull align 8 dereferenceable(32) %agg.result, i64 noundef %conv28) #15
  store i8 32, ptr %call29, align 1
  br label %for.inc

sw.bb30:                                          ; preds = %for.body
  %add = add i32 %i.019, 1
  %conv31 = zext i32 %add to i64
  %call32 = tail call noundef i64 @_ZNKSt7__cxx1112basic_stringIcSt11char_traitsIcESaIcEE6lengthEv(ptr noundef nonnull align 8 dereferenceable(32) %agg.result) #15
  %cmp33.not = icmp eq i64 %call32, %conv31
  br i1 %cmp33.not, label %sw.bb52, label %if.then

if.then:                                          ; preds = %sw.bb30
  %call36 = tail call noundef nonnull align 1 dereferenceable(1) ptr @_ZNSt7__cxx1112basic_stringIcSt11char_traitsIcESaIcEEixEm(ptr noundef nonnull align 8 dereferenceable(32) %agg.result, i64 noundef %conv31) #15
  %1 = load i8, ptr %call36, align 1
  switch i8 %1, label %sw.bb52 [
    i8 108, label %for.inc
    i8 124, label %sw.bb39
    i8 123, label %sw.bb39
    i8 125, label %sw.bb39
  ]

sw.bb39:                                          ; preds = %if.then, %if.then, %if.then
  %call43 = tail call ptr @_ZNSt7__cxx1112basic_stringIcSt11char_traitsIcESaIcEE5beginEv(ptr noundef nonnull align 8 dereferenceable(32) %agg.result) #15
  %add.ptr.i15 = getelementptr inbounds i8, ptr %call43, i64 %conv20
  %call49 = tail call ptr @_ZNSt7__cxx1112basic_stringIcSt11char_traitsIcESaIcEE5eraseEN9__gnu_cxx17__normal_iteratorIPKcS4_EE(ptr noundef nonnull align 8 dereferenceable(32) %agg.result, ptr %add.ptr.i15) #15
  br label %for.inc

sw.bb52:                                          ; preds = %sw.bb30, %if.then, %for.body, %for.body, %for.body, %for.body, %for.body, %for.body
  %call56 = tail call ptr @_ZNSt7__cxx1112basic_stringIcSt11char_traitsIcESaIcEE5beginEv(ptr noundef nonnull align 8 dereferenceable(32) %agg.result) #15
  %add.ptr.i16 = getelementptr inbounds i8, ptr %call56, i64 %conv20
  %call62 = tail call ptr @_ZNSt7__cxx1112basic_stringIcSt11char_traitsIcESaIcEE6insertEN9__gnu_cxx17__normal_iteratorIPKcS4_EEc(ptr noundef nonnull align 8 dereferenceable(32) %agg.result, ptr %add.ptr.i16, i8 noundef signext 92) #15
  %inc65 = add i32 %i.019, 1
  br label %for.inc

for.inc:                                          ; preds = %for.body, %sw.bb, %sw.bb14, %sw.bb52, %if.then, %sw.bb39
  %i.1 = phi i32 [ %i.019, %for.body ], [ %inc65, %sw.bb52 ], [ %i.019, %sw.bb39 ], [ %i.019, %if.then ], [ %inc27, %sw.bb14 ], [ %inc, %sw.bb ]
  %inc67 = add i32 %i.1, 1
  %conv = zext i32 %inc67 to i64
  %call = tail call noundef i64 @_ZNKSt7__cxx1112basic_stringIcSt11char_traitsIcESaIcEE6lengthEv(ptr noundef nonnull align 8 dereferenceable(32) %agg.result) #15
  %cmp.not = icmp eq i64 %call, %conv
  br i1 %cmp.not, label %nrvo.skipdtor, label %for.body, !llvm.loop !4

nrvo.skipdtor:                                    ; preds = %for.inc, %entry
  ret void
}